target datalayout = "e-m:e-p270:32:32-p271:32:32-p272:64:64-i64:64-i128:128-f80:128-n8:16:32:64-S128"
target triple = "x86_64-pc-linux-gnu"

; Function Attrs: nounwind uwtable
define void @flush_packet(ptr noundef %0) #0 {
  %2 = alloca ptr, align 8
  store ptr %0, ptr %2, align 8, !tbaa !3
  br label %3

3:                                                ; preds = %7, %1
  %4 = load ptr, ptr %2, align 8, !tbaa !3
  %5 = call i32 @get8_packet_raw(ptr noundef %4)
  %6 = icmp ne i32 %5, -1
  br i1 %6, label %7, label %8

7:                                                ; preds = %3
  br label %3, !llvm.loop !94

8:                                                ; preds = %3
  ret void
}