; Function Attrs: nofree nounwind uwtable
define void @flush_packet(ptr noundef captures(none) %0) local_unnamed_addr #17 {
  br label %2

2:                                                ; preds = %2, %1
  %3 = tail call i32 @get8_packet_raw(ptr noundef %0)
  %.not = icmp eq i32 %3, -1
  br i1 %.not, label %4, label %2, !llvm.loop !84

4:                                                ; preds = %2
  ret void
}